target datalayout = "e-m:e-p270:32:32-p271:32:32-p272:64:64-i64:64-i128:128-f80:128-n8:16:32:64-S128"
target triple = "x86_64-pc-linux-gnu"

%"class.std::optional" = type { %"struct.std::_Optional_base" }
%"struct.std::_Optional_base" = type { %"struct.std::_Optional_payload" }
%"struct.std::_Optional_payload" = type { %"struct.std::_Optional_payload_base.base.5", [7 x i8] }
%"struct.std::_Optional_payload_base.base.5" = type { %"union.std::_Optional_payload_base<gmx::CheckpointData<CheckpointDataOperation::Write>>::_Storage", i8 }
%"union.std::_Optional_payload_base<gmx::CheckpointData<CheckpointDataOperation::Write>>::_Storage" = type { %"class.gmx::CheckpointData" }
%"class.gmx::CheckpointData" = type { %"class.std::optional.0" }
%"class.std::optional.0" = type { %"struct.std::_Optional_base.1" }
%"struct.std::_Optional_base.1" = type { %"struct.std::_Optional_payload.3" }
%"struct.std::_Optional_payload.3" = type { %"struct.std::_Optional_payload_base.base", [7 x i8] }
%"struct.std::_Optional_payload_base.base" = type <{ %"union.std::_Optional_payload_base<gmx::KeyValueTreeObjectBuilder>::_Storage", i8 }>
%"union.std::_Optional_payload_base<gmx::KeyValueTreeObjectBuilder>::_Storage" = type { %"class.gmx::KeyValueTreeObjectBuilder" }
%"class.gmx::KeyValueTreeObjectBuilder" = type { ptr }
%struct.t_commrec = type <{ i8, [3 x i8], i32, i32, i32, i32, [4 x i8], ptr, ptr, i32, [4 x i8], ptr, i32, i32, %struct.gmx_nodecomm_t, %"class.std::unique_ptr.103", %"class.std::unique_ptr.111", ptr, ptr, i32, [4 x i8] }>
%struct.gmx_nodecomm_t = type { i8, ptr, i32, ptr }
%"class.std::unique_ptr.103" = type { %"struct.std::__uniq_ptr_data.104" }
%"struct.std::__uniq_ptr_data.104" = type { %"class.std::__uniq_ptr_impl.105" }
%"class.std::__uniq_ptr_impl.105" = type { %"class.std::tuple.106" }
%"class.std::tuple.106" = type { %"struct.std::_Tuple_impl.107" }
%"struct.std::_Tuple_impl.107" = type { %"struct.std::_Head_base.110" }
%"struct.std::_Head_base.110" = type { ptr }
%"class.std::unique_ptr.111" = type { %"struct.std::__uniq_ptr_data.112" }
%"struct.std::__uniq_ptr_data.112" = type { %"class.std::__uniq_ptr_impl.113" }
%"class.std::__uniq_ptr_impl.113" = type { %"class.std::tuple.114" }
%"class.std::tuple.114" = type { %"struct.std::_Tuple_impl.115" }
%"struct.std::_Tuple_impl.115" = type { %"struct.std::_Head_base.118" }
%"struct.std::_Head_base.118" = type { ptr }
%"struct.std::_Optional_payload_base" = type { %"union.std::_Optional_payload_base<gmx::CheckpointData<CheckpointDataOperation::Write>>::_Storage", i8, [7 x i8] }

; Function Attrs: mustprogress nounwind uwtable
define linkonce_odr noundef nonnull align 8 dereferenceable(16) ptr @_ZNSt22_Optional_payload_baseIN3gmx14CheckpointDataILNS0_23CheckpointDataOperationE1EEEE6_M_getEv(ptr noundef nonnull align 8 dereferenceable(17) %0) #2 comdat align 2 {
  %2 = alloca ptr, align 8
  store ptr %0, ptr %2, align 8, !tbaa !915
  %3 = load ptr, ptr %2, align 8
  %4 = getelementptr inbounds nuw %"struct.std::_Optional_payload_base", ptr %3, i32 0, i32 0
  ret ptr %4
}

; Function Attrs: mustprogress nounwind uwtable
define linkonce_odr noundef nonnull align 8 dereferenceable(16) ptr @_ZNSt19_Optional_base_implIN3gmx14CheckpointDataILNS0_23CheckpointDataOperationE1EEESt14_Optional_baseIS3_Lb1ELb1EEE6_M_getEv(ptr noundef nonnull align 1 dereferenceable(1) %0) #2 comdat align 2 {
  %2 = alloca ptr, align 8
  store ptr %0, ptr %2, align 8, !tbaa !911
  %3 = load ptr, ptr %2, align 8
  br label %4

4:                                                ; preds = %1
  br label %5

5:                                                ; preds = %4
  br label %6

6:                                                ; preds = %5
  %7 = getelementptr inbounds nuw %"struct.std::_Optional_base", ptr %3, i32 0, i32 0
  %8 = call noundef nonnull align 8 dereferenceable(16) ptr @_ZNSt22_Optional_payload_baseIN3gmx14CheckpointDataILNS0_23CheckpointDataOperationE1EEEE6_M_getEv(ptr noundef nonnull align 8 dereferenceable(17) %7) #21
  ret ptr %8
}

; Function Attrs: mustprogress nounwind uwtable
define linkonce_odr noundef zeroext i1 @_ZNKSt19_Optional_base_implIN3gmx14CheckpointDataILNS0_23CheckpointDataOperationE1EEESt14_Optional_baseIS3_Lb1ELb1EEE13_M_is_engagedEv(ptr noundef nonnull align 1 dereferenceable(1) %0) #2 comdat align 2 {
  %2 = alloca ptr, align 8
  store ptr %0, ptr %2, align 8, !tbaa !911
  %3 = load ptr, ptr %2, align 8
  %4 = getelementptr inbounds nuw %"struct.std::_Optional_base", ptr %3, i32 0, i32 0
  %5 = getelementptr inbounds nuw %"struct.std::_Optional_payload_base", ptr %4, i32 0, i32 1
  %6 = load i8, ptr %5, align 8, !tbaa !913, !range !406, !noundef !407
  %7 = trunc i8 %6 to i1
  ret i1 %7
}

; Function Attrs: mustprogress uwtable
define linkonce_odr noundef nonnull align 8 dereferenceable(16) ptr @_ZNRSt8optionalIN3gmx14CheckpointDataILNS0_23CheckpointDataOperationE1EEEE5valueEv(ptr noundef nonnull align 8 dereferenceable(24) %0) #1 comdat align 2 {
  %2 = alloca ptr, align 8
  store ptr %0, ptr %2, align 8, !tbaa !725
  %3 = load ptr, ptr %2, align 8
  %4 = call noundef zeroext i1 @_ZNKSt19_Optional_base_implIN3gmx14CheckpointDataILNS0_23CheckpointDataOperationE1EEESt14_Optional_baseIS3_Lb1ELb1EEE13_M_is_engagedEv(ptr noundef nonnull align 1 dereferenceable(1) %3) #21
  br i1 %4, label %5, label %7

5:                                                ; preds = %1
  %6 = call noundef nonnull align 8 dereferenceable(16) ptr @_ZNSt19_Optional_base_implIN3gmx14CheckpointDataILNS0_23CheckpointDataOperationE1EEESt14_Optional_baseIS3_Lb1ELb1EEE6_M_getEv(ptr noundef nonnull align 1 dereferenceable(1) %3) #21
  ret ptr %6

7:                                                ; preds = %1
  call void @_ZSt27__throw_bad_optional_accessv() #23
  unreachable
}

; Function Attrs: mustprogress uwtable
define void @_ZN3gmx8MttkData19saveCheckpointStateESt8optionalINS_14CheckpointDataILNS_23CheckpointDataOperationE1EEEEPK9t_commrec(ptr noundef nonnull align 8 dereferenceable(152) %0, ptr noundef byval(%"class.std::optional") align 8 %1, ptr noundef %2) unnamed_addr #1 align 2 {
  %4 = alloca ptr, align 8
  %5 = alloca ptr, align 8
  store ptr %0, ptr %4, align 8, !tbaa !4
  store ptr %2, ptr %5, align 8, !tbaa !9
  %6 = load ptr, ptr %4, align 8
  %7 = load ptr, ptr %5, align 8, !tbaa !9
  %8 = getelementptr inbounds nuw %struct.t_commrec, ptr %7, i32 0, i32 13
  %9 = load i32, ptr %8, align 4, !tbaa !11
  %10 = icmp eq i32 %9, 0
  br i1 %10, label %16, label %11

11:                                               ; preds = %3
  %12 = load ptr, ptr %5, align 8, !tbaa !9
  %13 = getelementptr inbounds nuw %struct.t_commrec, ptr %12, i32 0, i32 12
  %14 = load i32, ptr %13, align 8, !tbaa !31
  %15 = icmp sgt i32 %14, 1
  br i1 %15, label %18, label %16

16:                                               ; preds = %11, %3
  %17 = call noundef nonnull align 8 dereferenceable(16) ptr @_ZNRSt8optionalIN3gmx14CheckpointDataILNS0_23CheckpointDataOperationE1EEEE5valueEv(ptr noundef nonnull align 8 dereferenceable(24) %1)
  call void @_ZN3gmx8MttkData16doCheckpointDataILNS_23CheckpointDataOperationE1EEEvPNS_14CheckpointDataIXT_EEE(ptr noundef nonnull align 8 dereferenceable(152) %6, ptr noundef %17)
  br label %18

18:                                               ; preds = %16, %11
  ret void
}