; Function Attrs: mustprogress uwtable
define void @_ZN3gmx8MttkData19saveCheckpointStateESt8optionalINS_14CheckpointDataILNS_23CheckpointDataOperationE1EEEEPK9t_commrec(ptr noundef nonnull align 8 dereferenceable(152) %0, ptr noundef byval(%"class.std::optional") align 8 %1, ptr noundef readonly captures(none) %2) unnamed_addr #1 align 2 {
  %4 = getelementptr inbounds nuw i8, ptr %2, i64 60
  %5 = load i32, ptr %4, align 4, !tbaa !14
  %6 = icmp eq i32 %5, 0
  br i1 %6, label %11, label %7

7:                                                ; preds = %3
  %8 = getelementptr inbounds nuw i8, ptr %2, i64 56
  %9 = load i32, ptr %8, align 8, !tbaa !34
  %10 = icmp sgt i32 %9, 1
  br i1 %10, label %16, label %11

11:                                               ; preds = %7, %3
  %12 = getelementptr inbounds nuw i8, ptr %1, i64 16
  %13 = load i8, ptr %12, align 8, !tbaa !35, !range !37, !noundef !38
  %14 = trunc nuw i8 %13 to i1
  br i1 %14, label %_ZNRSt8optionalIN3gmx14CheckpointDataILNS0_23CheckpointDataOperationE1EEEE5valueEv.exit, label %15

15:                                               ; preds = %11
  tail call void @_ZSt27__throw_bad_optional_accessv() #34
  unreachable

_ZNRSt8optionalIN3gmx14CheckpointDataILNS0_23CheckpointDataOperationE1EEEE5valueEv.exit: ; preds = %11
  call void @_ZN3gmx8MttkData16doCheckpointDataILNS_23CheckpointDataOperationE1EEEvPNS_14CheckpointDataIXT_EEE(ptr noundef nonnull align 8 dereferenceable(152) %0, ptr noundef nonnull %1)
  br label %16

16:                                               ; preds = %_ZNRSt8optionalIN3gmx14CheckpointDataILNS0_23CheckpointDataOperationE1EEEE5valueEv.exit, %7
  ret void
}